; Function Attrs: nounwind uwtable
define ptr @l_Lean_LocalContext_foldlM___at_Lean_MVarId_revertAfter___spec__1___boxed(ptr noundef %0, ptr noundef %1, ptr noundef %2) local_unnamed_addr #0 {
  %4 = getelementptr inbounds nuw i8, ptr %0, i64 16
  %5 = load ptr, ptr %4, align 8, !tbaa !10
  %6 = tail call ptr @l_Lean_PersistentArray_foldlM___at_Lean_MVarId_revertAfter___spec__2(ptr noundef %5, ptr noundef %1, ptr noundef %2)
  %7 = ptrtoint ptr %2 to i64
  %8 = and i64 %7, 1
  %.not = icmp eq i64 %8, 0
  br i1 %.not, label %9, label %lean_dec.exit6

9:                                                ; preds = %3
  %10 = load i32, ptr %2, align 4, !tbaa !4
  %11 = icmp sgt i32 %10, 1
  br i1 %11, label %12, label %14, !prof !9

12:                                               ; preds = %9
  %13 = add nsw i32 %10, -1
  store i32 %13, ptr %2, align 4, !tbaa !4
  br label %lean_dec.exit6

14:                                               ; preds = %9
  %.not.i = icmp eq i32 %10, 0
  br i1 %.not.i, label %lean_dec.exit6, label %15

15:                                               ; preds = %14
  tail call void @lean_dec_ref_cold(ptr noundef nonnull %2) #4
  br label %lean_dec.exit6

lean_dec.exit6:                                   ; preds = %15, %14, %12, %3
  %16 = ptrtoint ptr %0 to i64
  %17 = and i64 %16, 1
  %.not9 = icmp eq i64 %17, 0
  br i1 %.not9, label %18, label %lean_dec.exit

18:                                               ; preds = %lean_dec.exit6
  %19 = load i32, ptr %0, align 4, !tbaa !4
  %20 = icmp sgt i32 %19, 1
  br i1 %20, label %21, label %23, !prof !9

21:                                               ; preds = %18
  %22 = add nsw i32 %19, -1
  store i32 %22, ptr %0, align 4, !tbaa !4
  br label %lean_dec.exit

23:                                               ; preds = %18
  %.not.i7 = icmp eq i32 %19, 0
  br i1 %.not.i7, label %lean_dec.exit, label %24

24:                                               ; preds = %23
  tail call void @lean_dec_ref_cold(ptr noundef nonnull %0) #4
  br label %lean_dec.exit

lean_dec.exit:                                    ; preds = %24, %23, %21, %lean_dec.exit6
  ret ptr %6
}